; Function Attrs: mustprogress nofree norecurse nosync nounwind willreturn memory(read, inaccessiblemem: none) uwtable
define hidden noundef zeroext i1 @_ZN7datalog21variable_intersection10args_matchEPK3appS3_(ptr nocapture noundef nonnull readonly align 8 dereferenceable(40) %this, ptr nocapture noundef readonly %f1, ptr nocapture noundef readonly %f2) local_unnamed_addr #6 align 2 {
entry:
  %0 = load ptr, ptr %this, align 8
  %cmp.i.i = icmp eq ptr %0, null
  br i1 %cmp.i.i, label %return, label %_ZNK7datalog21variable_intersection4sizeEv.exit

_ZNK7datalog21variable_intersection4sizeEv.exit:  ; preds = %entry
  %arrayidx.i.i = getelementptr inbounds i8, ptr %0, i64 -4
  %1 = load i32, ptr %arrayidx.i.i, align 4
  %cmp7 = icmp eq i32 %1, 0
  br i1 %cmp7, label %return, label %for.body.lr.ph

for.body.lr.ph:                                   ; preds = %_ZNK7datalog21variable_intersection4sizeEv.exit
  %m_args2.i = getelementptr inbounds i8, ptr %this, i64 8
  %2 = load ptr, ptr %m_args2.i, align 8
  %m_args.i = getelementptr inbounds i8, ptr %f1, i64 32
  %m_args.i4 = getelementptr inbounds i8, ptr %f2, i64 32
  %3 = zext i32 %1 to i64
  %4 = load i32, ptr %0, align 4
  %5 = load i32, ptr %2, align 4
  %idxprom.i13 = zext i32 %4 to i64
  %arrayidx.i14 = getelementptr inbounds [0 x ptr], ptr %m_args.i, i64 0, i64 %idxprom.i13
  %6 = load ptr, ptr %arrayidx.i14, align 8
  %idxprom.i515 = zext i32 %5 to i64
  %arrayidx.i616 = getelementptr inbounds [0 x ptr], ptr %m_args.i4, i64 0, i64 %idxprom.i515
  %7 = load ptr, ptr %arrayidx.i616, align 8
  %cmp.i17 = icmp eq ptr %6, %7
  br i1 %cmp.i17, label %for.cond, label %return

for.cond:                                         ; preds = %for.body.lr.ph, %for.body
  %indvars.iv18 = phi i64 [ %indvars.iv.next, %for.body ], [ 0, %for.body.lr.ph ]
  %indvars.iv.next = add nuw nsw i64 %indvars.iv18, 1
  %exitcond = icmp eq i64 %indvars.iv.next, %3
  br i1 %exitcond, label %return.loopexit, label %for.body, !llvm.loop !18

for.body:                                         ; preds = %for.cond
  %arrayidx.i.i3 = getelementptr inbounds i32, ptr %0, i64 %indvars.iv.next
  %8 = load i32, ptr %arrayidx.i.i3, align 4
  %arrayidx.i3.i = getelementptr inbounds i32, ptr %2, i64 %indvars.iv.next
  %9 = load i32, ptr %arrayidx.i3.i, align 4
  %idxprom.i = zext i32 %8 to i64
  %arrayidx.i = getelementptr inbounds [0 x ptr], ptr %m_args.i, i64 0, i64 %idxprom.i
  %10 = load ptr, ptr %arrayidx.i, align 8
  %idxprom.i5 = zext i32 %9 to i64
  %arrayidx.i6 = getelementptr inbounds [0 x ptr], ptr %m_args.i4, i64 0, i64 %idxprom.i5
  %11 = load ptr, ptr %arrayidx.i6, align 8
  %cmp.i = icmp eq ptr %10, %11
  br i1 %cmp.i, label %for.cond, label %return.loopexit, !llvm.loop !18

return.loopexit:                                  ; preds = %for.body, %for.cond
  %cmp.le = icmp uge i64 %indvars.iv.next, %3
  br label %return

return:                                           ; preds = %return.loopexit, %for.body.lr.ph, %entry, %_ZNK7datalog21variable_intersection4sizeEv.exit
  %cmp.lcssa = phi i1 [ true, %_ZNK7datalog21variable_intersection4sizeEv.exit ], [ true, %entry ], [ false, %for.body.lr.ph ], [ %cmp.le, %return.loopexit ]
  ret i1 %cmp.lcssa
}